target datalayout = "e-m:e-p270:32:32-p271:32:32-p272:64:64-i64:64-i128:128-f80:128-n8:16:32:64-S128"
target triple = "x86_64-pc-linux-gnu"

%struct._wmem_array_t = type { ptr, ptr, i64, i32, i32, i8 }

@.str = private unnamed_addr constant [25 x i8] c"wsutil/wmem/wmem_array.c\00", align 1
@__func__.wmem_array_index = private unnamed_addr constant [17 x i8] c"wmem_array_index\00", align 1
@.str.1 = private unnamed_addr constant [32 x i8] c"array_index < array->elem_count\00", align 1

; Function Attrs: null_pointer_is_valid sspstrong uwtable
define ptr @wmem_array_index(ptr noundef %0, i32 noundef %1) #0 {
  %3 = alloca ptr, align 8
  %4 = alloca i32, align 4
  %5 = alloca i32, align 4
  %6 = alloca i32, align 4
  store ptr %0, ptr %3, align 8
  store i32 %1, ptr %4, align 4
  br label %7

7:                                                ; preds = %2
  call void @llvm.lifetime.start.p0(i64 4, ptr %5) #11
  %8 = load i32, ptr %4, align 4
  %9 = load ptr, ptr %3, align 8
  %10 = getelementptr inbounds nuw %struct._wmem_array_t, ptr %9, i32 0, i32 3
  %11 = load i32, ptr %10, align 8
  %12 = icmp ult i32 %8, %11
  br i1 %12, label %13, label %14

13:                                               ; preds = %7
  store i32 1, ptr %5, align 4
  br label %15

14:                                               ; preds = %7
  store i32 0, ptr %5, align 4
  br label %15

15:                                               ; preds = %14, %13
  %16 = load i32, ptr %5, align 4
  store i32 %16, ptr %6, align 4
  call void @llvm.lifetime.end.p0(i64 4, ptr %5) #11
  %17 = load i32, ptr %6, align 4
  %18 = sext i32 %17 to i64
  %19 = call i64 @llvm.expect.i64(i64 %18, i64 1)
  %20 = icmp ne i64 %19, 0
  br i1 %20, label %21, label %22

21:                                               ; preds = %15
  br label %23

22:                                               ; preds = %15
  call void @g_assertion_message_expr(ptr noundef null, ptr noundef @.str, i32 noundef 130, ptr noundef @__func__.wmem_array_index, ptr noundef @.str.1) #14
  unreachable

23:                                               ; preds = %21
  br label %24

24:                                               ; preds = %23
  %25 = load ptr, ptr %3, align 8
  %26 = getelementptr inbounds nuw %struct._wmem_array_t, ptr %25, i32 0, i32 1
  %27 = load ptr, ptr %26, align 8
  %28 = load i32, ptr %4, align 4
  %29 = zext i32 %28 to i64
  %30 = load ptr, ptr %3, align 8
  %31 = getelementptr inbounds nuw %struct._wmem_array_t, ptr %30, i32 0, i32 2
  %32 = load i64, ptr %31, align 8
  %33 = mul i64 %29, %32
  %34 = getelementptr i8, ptr %27, i64 %33
  ret ptr %34
}