; Function Attrs: null_pointer_is_valid sspstrong uwtable
define ptr @wmem_array_index(ptr noundef readonly captures(none) %0, i32 noundef %1) local_unnamed_addr #0 {
  %3 = getelementptr inbounds nuw i8, ptr %0, i64 24
  %4 = load i32, ptr %3, align 8
  %.not = icmp ult i32 %1, %4
  br i1 %.not, label %6, label %5, !prof !10

5:                                                ; preds = %2
  tail call void @g_assertion_message_expr(ptr noundef null, ptr noundef nonnull @.str, i32 noundef 130, ptr noundef nonnull @__func__.wmem_array_index, ptr noundef nonnull @.str.1) #15
  unreachable

6:                                                ; preds = %2
  %7 = getelementptr inbounds nuw i8, ptr %0, i64 8
  %8 = load ptr, ptr %7, align 8
  %9 = zext i32 %1 to i64
  %10 = getelementptr inbounds nuw i8, ptr %0, i64 16
  %11 = load i64, ptr %10, align 8
  %12 = mul i64 %11, %9
  %13 = getelementptr i8, ptr %8, i64 %12
  ret ptr %13
}